; Function Attrs: nounwind uwtable
define ptr @l___private_Std_Sync_Channel_0__Std_Channel_Sync_forIn___rarg___lambda__1(ptr noundef %0, ptr noundef %1, ptr noundef %2, ptr noundef %3, ptr noundef %4, ptr noundef %5) #1 {
  %7 = ptrtoint ptr %5 to i64
  %8 = and i64 %7, 1
  %.not.i52 = icmp eq i64 %8, 0
  br i1 %.not.i52, label %12, label %9

9:                                                ; preds = %6
  %10 = lshr i64 %7, 1
  %11 = trunc i64 %10 to i32
  br label %lean_obj_tag.exit

12:                                               ; preds = %6
  %13 = getelementptr i8, ptr %5, i64 4
  %.val.i = load i32, ptr %13, align 4
  %14 = lshr i32 %.val.i, 24
  br label %lean_obj_tag.exit

lean_obj_tag.exit:                                ; preds = %9, %12
  %.0.i = phi i32 [ %11, %9 ], [ %14, %12 ]
  %15 = icmp eq i32 %.0.i, 0
  br i1 %15, label %16, label %107

16:                                               ; preds = %lean_obj_tag.exit
  %17 = ptrtoint ptr %4 to i64
  %18 = and i64 %17, 1
  %.not65 = icmp eq i64 %18, 0
  br i1 %.not65, label %19, label %lean_dec.exit34

19:                                               ; preds = %16
  %20 = load i32, ptr %4, align 4, !tbaa !4
  %21 = icmp sgt i32 %20, 1
  br i1 %21, label %22, label %24, !prof !9

22:                                               ; preds = %19
  %23 = add nsw i32 %20, -1
  store i32 %23, ptr %4, align 4, !tbaa !4
  br label %lean_dec.exit34

24:                                               ; preds = %19
  %.not.i = icmp eq i32 %20, 0
  br i1 %.not.i, label %lean_dec.exit34, label %25

25:                                               ; preds = %24
  tail call void @lean_dec_ref_cold(ptr noundef nonnull %4) #7
  br label %lean_dec.exit34

lean_dec.exit34:                                  ; preds = %25, %24, %22, %16
  %26 = ptrtoint ptr %3 to i64
  %27 = and i64 %26, 1
  %.not66 = icmp eq i64 %27, 0
  br i1 %.not66, label %28, label %lean_dec.exit33

28:                                               ; preds = %lean_dec.exit34
  %29 = load i32, ptr %3, align 4, !tbaa !4
  %30 = icmp sgt i32 %29, 1
  br i1 %30, label %31, label %33, !prof !9

31:                                               ; preds = %28
  %32 = add nsw i32 %29, -1
  store i32 %32, ptr %3, align 4, !tbaa !4
  br label %lean_dec.exit33

33:                                               ; preds = %28
  %.not.i38 = icmp eq i32 %29, 0
  br i1 %.not.i38, label %lean_dec.exit33, label %34

34:                                               ; preds = %33
  tail call void @lean_dec_ref_cold(ptr noundef nonnull %3) #7
  br label %lean_dec.exit33

lean_dec.exit33:                                  ; preds = %34, %33, %31, %lean_dec.exit34
  %35 = ptrtoint ptr %2 to i64
  %36 = and i64 %35, 1
  %.not67 = icmp eq i64 %36, 0
  br i1 %.not67, label %37, label %lean_dec.exit32

37:                                               ; preds = %lean_dec.exit33
  %38 = load i32, ptr %2, align 4, !tbaa !4
  %39 = icmp sgt i32 %38, 1
  br i1 %39, label %40, label %42, !prof !9

40:                                               ; preds = %37
  %41 = add nsw i32 %38, -1
  store i32 %41, ptr %2, align 4, !tbaa !4
  br label %lean_dec.exit32

42:                                               ; preds = %37
  %.not.i40 = icmp eq i32 %38, 0
  br i1 %.not.i40, label %lean_dec.exit32, label %43

43:                                               ; preds = %42
  tail call void @lean_dec_ref_cold(ptr noundef nonnull %2) #7
  br label %lean_dec.exit32

lean_dec.exit32:                                  ; preds = %43, %42, %40, %lean_dec.exit33
  %44 = ptrtoint ptr %1 to i64
  %45 = and i64 %44, 1
  %.not68 = icmp eq i64 %45, 0
  br i1 %.not68, label %46, label %lean_dec.exit31

46:                                               ; preds = %lean_dec.exit32
  %47 = load i32, ptr %1, align 4, !tbaa !4
  %48 = icmp sgt i32 %47, 1
  br i1 %48, label %49, label %51, !prof !9

49:                                               ; preds = %46
  %50 = add nsw i32 %47, -1
  store i32 %50, ptr %1, align 4, !tbaa !4
  br label %lean_dec.exit31

51:                                               ; preds = %46
  %.not.i42 = icmp eq i32 %47, 0
  br i1 %.not.i42, label %lean_dec.exit31, label %52

52:                                               ; preds = %51
  tail call void @lean_dec_ref_cold(ptr noundef nonnull %1) #7
  br label %lean_dec.exit31

lean_dec.exit31:                                  ; preds = %52, %51, %49, %lean_dec.exit32
  %53 = getelementptr inbounds nuw i8, ptr %5, i64 8
  %54 = load ptr, ptr %53, align 8, !tbaa !10
  %55 = ptrtoint ptr %54 to i64
  %56 = and i64 %55, 1
  %.not69 = icmp eq i64 %56, 0
  br i1 %.not69, label %57, label %lean_inc.exit37

57:                                               ; preds = %lean_dec.exit31
  %.val.i53 = load i32, ptr %54, align 4, !tbaa !4
  %58 = icmp sgt i32 %.val.i53, 0
  br i1 %58, label %59, label %61, !prof !9

59:                                               ; preds = %57
  %60 = add nuw i32 %.val.i53, 1
  store i32 %60, ptr %54, align 4, !tbaa !4
  br label %lean_inc.exit37

61:                                               ; preds = %57
  %.not.i54 = icmp eq i32 %.val.i53, 0
  br i1 %.not.i54, label %lean_inc.exit37, label %62

62:                                               ; preds = %61
  tail call void @lean_inc_ref_cold(ptr noundef nonnull %54) #7
  br label %lean_inc.exit37

lean_inc.exit37:                                  ; preds = %62, %61, %59, %lean_dec.exit31
  br i1 %.not.i52, label %63, label %lean_dec.exit30

63:                                               ; preds = %lean_inc.exit37
  %64 = load i32, ptr %5, align 4, !tbaa !4
  %65 = icmp sgt i32 %64, 1
  br i1 %65, label %66, label %68, !prof !9

66:                                               ; preds = %63
  %67 = add nsw i32 %64, -1
  store i32 %67, ptr %5, align 4, !tbaa !4
  br label %lean_dec.exit30

68:                                               ; preds = %63
  %.not.i44 = icmp eq i32 %64, 0
  br i1 %.not.i44, label %lean_dec.exit30, label %69

69:                                               ; preds = %68
  tail call void @lean_dec_ref_cold(ptr noundef nonnull %5) #7
  br label %lean_dec.exit30

lean_dec.exit30:                                  ; preds = %69, %68, %66, %lean_inc.exit37
  %70 = getelementptr inbounds nuw i8, ptr %0, i64 8
  %71 = load ptr, ptr %70, align 8, !tbaa !10
  %72 = ptrtoint ptr %71 to i64
  %73 = and i64 %72, 1
  %.not71 = icmp eq i64 %73, 0
  br i1 %.not71, label %74, label %lean_inc.exit36

74:                                               ; preds = %lean_dec.exit30
  %.val.i55 = load i32, ptr %71, align 4, !tbaa !4
  %75 = icmp sgt i32 %.val.i55, 0
  br i1 %75, label %76, label %78, !prof !9

76:                                               ; preds = %74
  %77 = add nuw i32 %.val.i55, 1
  store i32 %77, ptr %71, align 4, !tbaa !4
  br label %lean_inc.exit36

78:                                               ; preds = %74
  %.not.i56 = icmp eq i32 %.val.i55, 0
  br i1 %.not.i56, label %lean_inc.exit36, label %79

79:                                               ; preds = %78
  tail call void @lean_inc_ref_cold(ptr noundef nonnull %71) #7
  br label %lean_inc.exit36

lean_inc.exit36:                                  ; preds = %79, %78, %76, %lean_dec.exit30
  %80 = ptrtoint ptr %0 to i64
  %81 = and i64 %80, 1
  %.not72 = icmp eq i64 %81, 0
  br i1 %.not72, label %82, label %lean_dec.exit29

82:                                               ; preds = %lean_inc.exit36
  %83 = load i32, ptr %0, align 4, !tbaa !4
  %84 = icmp sgt i32 %83, 1
  br i1 %84, label %85, label %87, !prof !9

85:                                               ; preds = %82
  %86 = add nsw i32 %83, -1
  store i32 %86, ptr %0, align 4, !tbaa !4
  br label %lean_dec.exit29

87:                                               ; preds = %82
  %.not.i46 = icmp eq i32 %83, 0
  br i1 %.not.i46, label %lean_dec.exit29, label %88

88:                                               ; preds = %87
  tail call void @lean_dec_ref_cold(ptr noundef nonnull %0) #7
  br label %lean_dec.exit29

lean_dec.exit29:                                  ; preds = %88, %87, %85, %lean_inc.exit36
  %89 = getelementptr inbounds nuw i8, ptr %71, i64 16
  %90 = load ptr, ptr %89, align 8, !tbaa !10
  %91 = ptrtoint ptr %90 to i64
  %92 = and i64 %91, 1
  %.not73 = icmp eq i64 %92, 0
  br i1 %.not73, label %93, label %lean_inc.exit35

93:                                               ; preds = %lean_dec.exit29
  %.val.i58 = load i32, ptr %90, align 4, !tbaa !4
  %94 = icmp sgt i32 %.val.i58, 0
  br i1 %94, label %95, label %97, !prof !9

95:                                               ; preds = %93
  %96 = add nuw i32 %.val.i58, 1
  store i32 %96, ptr %90, align 4, !tbaa !4
  br label %lean_inc.exit35

97:                                               ; preds = %93
  %.not.i59 = icmp eq i32 %.val.i58, 0
  br i1 %.not.i59, label %lean_inc.exit35, label %98

98:                                               ; preds = %97
  tail call void @lean_inc_ref_cold(ptr noundef nonnull %90) #7
  br label %lean_inc.exit35

lean_inc.exit35:                                  ; preds = %98, %97, %95, %lean_dec.exit29
  br i1 %.not71, label %99, label %lean_dec.exit28

99:                                               ; preds = %lean_inc.exit35
  %100 = load i32, ptr %71, align 4, !tbaa !4
  %101 = icmp sgt i32 %100, 1
  br i1 %101, label %102, label %104, !prof !9

102:                                              ; preds = %99
  %103 = add nsw i32 %100, -1
  store i32 %103, ptr %71, align 4, !tbaa !4
  br label %lean_dec.exit28

104:                                              ; preds = %99
  %.not.i48 = icmp eq i32 %100, 0
  br i1 %.not.i48, label %lean_dec.exit28, label %105

105:                                              ; preds = %104
  tail call void @lean_dec_ref_cold(ptr noundef nonnull %71) #7
  br label %lean_dec.exit28

lean_dec.exit28:                                  ; preds = %105, %104, %102, %lean_inc.exit35
  %106 = tail call ptr @lean_apply_2(ptr noundef %90, ptr noundef nonnull inttoptr (i64 1 to ptr), ptr noundef %54) #7
  br label %126

107:                                              ; preds = %lean_obj_tag.exit
  %108 = getelementptr inbounds nuw i8, ptr %5, i64 8
  %109 = load ptr, ptr %108, align 8, !tbaa !10
  %110 = ptrtoint ptr %109 to i64
  %111 = and i64 %110, 1
  %.not = icmp eq i64 %111, 0
  br i1 %.not, label %112, label %lean_inc.exit

112:                                              ; preds = %107
  %.val.i61 = load i32, ptr %109, align 4, !tbaa !4
  %113 = icmp sgt i32 %.val.i61, 0
  br i1 %113, label %114, label %116, !prof !9

114:                                              ; preds = %112
  %115 = add nuw i32 %.val.i61, 1
  store i32 %115, ptr %109, align 4, !tbaa !4
  br label %lean_inc.exit

116:                                              ; preds = %112
  %.not.i62 = icmp eq i32 %.val.i61, 0
  br i1 %.not.i62, label %lean_inc.exit, label %117

117:                                              ; preds = %116
  tail call void @lean_inc_ref_cold(ptr noundef nonnull %109) #7
  br label %lean_inc.exit

lean_inc.exit:                                    ; preds = %117, %116, %114, %107
  br i1 %.not.i52, label %118, label %lean_dec.exit

118:                                              ; preds = %lean_inc.exit
  %119 = load i32, ptr %5, align 4, !tbaa !4
  %120 = icmp sgt i32 %119, 1
  br i1 %120, label %121, label %123, !prof !9

121:                                              ; preds = %118
  %122 = add nsw i32 %119, -1
  store i32 %122, ptr %5, align 4, !tbaa !4
  br label %lean_dec.exit

123:                                              ; preds = %118
  %.not.i50 = icmp eq i32 %119, 0
  br i1 %.not.i50, label %lean_dec.exit, label %124

124:                                              ; preds = %123
  tail call void @lean_dec_ref_cold(ptr noundef nonnull %5) #7
  br label %lean_dec.exit

lean_dec.exit:                                    ; preds = %124, %123, %121, %lean_inc.exit
  %125 = tail call ptr @l___private_Std_Sync_Channel_0__Std_Channel_Sync_forIn___rarg(ptr noundef %1, ptr noundef %0, ptr noundef %2, ptr noundef %3, ptr noundef %4, ptr noundef %109)
  br label %126

126:                                              ; preds = %lean_dec.exit, %lean_dec.exit28
  %.0 = phi ptr [ %106, %lean_dec.exit28 ], [ %125, %lean_dec.exit ]
  ret ptr %.0
}